; Function Attrs: mustprogress nounwind uwtable
define void @_ZN5boost6fibers22condition_variable_any10notify_allEv(ptr noundef nonnull align 8 dereferenceable(24) %0) local_unnamed_addr #3 align 2 personality ptr @__gxx_personality_v0 {
  tail call void @_ZN5boost6fibers6detail13spinlock_ttas4lockEv(ptr noundef nonnull align 4 dereferenceable(4) %0) #14
  %2 = getelementptr inbounds nuw i8, ptr %0, i64 8
  invoke void @_ZN5boost6fibers10wait_queue10notify_allEv(ptr noundef nonnull align 8 dereferenceable(16) %2)
          to label %_ZNSt11unique_lockIN5boost6fibers6detail13spinlock_ttasEED2Ev.exit unwind label %3

_ZNSt11unique_lockIN5boost6fibers6detail13spinlock_ttasEED2Ev.exit: ; preds = %1
  store atomic i32 1, ptr %0 release, align 8
  ret void

3:                                                ; preds = %1
  %4 = landingpad { ptr, i32 }
          catch ptr null
  %5 = extractvalue { ptr, i32 } %4, 0
  tail call void @__clang_call_terminate(ptr %5) #15
  unreachable
}